target datalayout = "e-m:e-p270:32:32-p271:32:32-p272:64:64-i64:64-i128:128-f80:128-n8:16:32:64-S128"
target triple = "x86_64-pc-linux-gnu"

%struct._GdkRGBA = type { double, double, double, double }
%struct.darktable_t = type { %struct.dt_codepath_t, i32, i32, ptr, ptr, ptr, ptr, ptr, ptr, ptr, ptr, ptr, ptr, ptr, ptr, ptr, ptr, ptr, ptr, ptr, ptr, ptr, ptr, ptr, ptr, ptr, ptr, ptr, ptr, ptr, [64 x %struct.dt_pthread_mutex_t], %struct.dt_pthread_mutex_t, %struct.dt_pthread_mutex_t, %struct.dt_pthread_mutex_t, %struct.dt_pthread_mutex_t, %struct.dt_pthread_mutex_t, ptr, ptr, ptr, ptr, ptr, ptr, ptr, ptr, ptr, ptr, ptr, ptr, ptr, %struct.dt_lua_state_t, ptr, double, ptr, i32, [47 x i32], i32, i32, ptr, ptr, %struct.dt_sys_resources_t, %struct.dt_backthumb_t, %struct.dt_gimp_t }
%struct.dt_codepath_t = type { i8, [3 x i8] }
%struct.dt_pthread_mutex_t = type { %union.pthread_mutex_t }
%union.pthread_mutex_t = type { %struct.__pthread_mutex_s }
%struct.__pthread_mutex_s = type { i32, i32, i32, i32, i32, i16, i16, %struct.__pthread_internal_list }
%struct.__pthread_internal_list = type { ptr, ptr }
%struct.dt_lua_state_t = type { i32 }
%struct.dt_sys_resources_t = type { i64, i64, ptr, ptr, i32 }
%struct.dt_backthumb_t = type { double, double, i32, i32, i32, i32 }
%struct.dt_gimp_t = type { i32, ptr, ptr, i32, i32 }
%struct.dt_iop_module_t = type { i32, ptr, ptr, ptr, ptr, ptr, ptr, ptr, ptr, ptr, ptr, ptr, ptr, ptr, ptr, ptr, ptr, ptr, ptr, ptr, ptr, ptr, ptr, ptr, ptr, ptr, ptr, ptr, ptr, ptr, ptr, ptr, ptr, ptr, ptr, ptr, ptr, ptr, ptr, ptr, ptr, ptr, ptr, ptr, ptr, ptr, ptr, ptr, ptr, ptr, ptr, ptr, ptr, ptr, ptr, ptr, ptr, [20 x i8], i32, i32, i32, i32, i32, i32, i32, [8 x i8], [4 x float], [4 x float], [4 x float], [4 x float], [4 x float], [4 x float], ptr, %struct.dt_dev_histogram_stats_t, [4 x i32], i32, i32, ptr, i32, i32, ptr, ptr, i32, ptr, %struct.dt_pthread_mutex_t, ptr, ptr, ptr, ptr, %struct.anon, ptr, ptr, ptr, ptr, ptr, ptr, ptr, i32, ptr, ptr, ptr, ptr, ptr, ptr, ptr, i32, ptr, i32, [128 x i8], i32, ptr, ptr, i32, [12 x i8] }
%struct.dt_dev_histogram_stats_t = type { i32, i64, i32, i32 }
%struct.anon = type { %struct.anon.0, %struct.anon.1 }
%struct.anon.0 = type { ptr, ptr }
%struct.anon.1 = type { ptr, i32 }
%struct.dt_iop_gui_blend_data_t = type { i32, i32, i32, i32, i32, i32, i32, ptr, ptr, ptr, ptr, ptr, ptr, ptr, ptr, ptr, ptr, ptr, ptr, ptr, [2 x %struct.dt_iop_gui_blendif_filter_t], ptr, ptr, ptr, ptr, ptr, ptr, ptr, ptr, ptr, ptr, ptr, ptr, i32, i32, ptr, i32, [8 x [2 x i32]], i32, i32, ptr, i32, ptr, ptr, ptr, [5 x ptr], [5 x i32], ptr, ptr, ptr, i32, ptr, ptr, i32, %struct.dt_pthread_mutex_t }
%struct.dt_iop_gui_blendif_filter_t = type { ptr, ptr, [4 x ptr], ptr, ptr, ptr }
%struct.dt_gui_gtk_t = type { ptr, %struct.dt_gui_widgets_t, %struct.dt_gui_scrollbars_t, i32, ptr, i32, [39 x %struct._GdkRGBA], i32, i32, i32, i32, i32, double, double, double, double, ptr, double, double, double, double, i32, i32, [4096 x i8], i32, i32, i32, %struct.dt_pthread_mutex_t }
%struct.dt_gui_widgets_t = type { ptr, ptr, ptr, ptr, i32, i32, i32 }
%struct.dt_gui_scrollbars_t = type { ptr, ptr, i32 }
%struct.dt_iop_gui_blendif_channel_t = type { ptr, ptr, float, i32, ptr, i32, float, [2 x i32], i32, ptr, ptr, ptr }
%struct.dt_develop_blend_params_t = type { i32, i32, i32, float, float, i32, i32, i32, float, i32, float, float, float, float, i32, [2 x i32], [64 x float], [16 x float], [20 x i8], i32, i32, i32 }

@darktable = external global %struct.darktable_t, align 8

; Function Attrs: nounwind uwtable
define internal void @_blendop_blendif_polarity_callback(ptr noundef %0, ptr noundef %1) #0 {
  %3 = alloca ptr, align 8
  %4 = alloca ptr, align 8
  %5 = alloca i32, align 4
  %6 = alloca ptr, align 8
  %7 = alloca ptr, align 8
  %8 = alloca i32, align 4
  %9 = alloca i32, align 4
  %10 = alloca ptr, align 8
  store ptr %0, ptr %3, align 8, !tbaa !187
  store ptr %1, ptr %4, align 8, !tbaa !31
  %11 = load ptr, ptr getelementptr inbounds nuw (%struct.darktable_t, ptr @darktable, i32 0, i32 14), align 8, !tbaa !39
  %12 = getelementptr inbounds nuw %struct.dt_gui_gtk_t, ptr %11, i32 0, i32 5
  %13 = load i32, ptr %12, align 8, !tbaa !72
  %14 = icmp ne i32 %13, 0
  br i1 %14, label %15, label %16

15:                                               ; preds = %2
  br label %101

16:                                               ; preds = %2
  call void @llvm.lifetime.start.p0(i64 4, ptr %5) #11
  %17 = load ptr, ptr %3, align 8, !tbaa !187
  %18 = call i32 @gtk_toggle_button_get_active(ptr noundef %17)
  store i32 %18, ptr %5, align 4, !tbaa !80
  call void @llvm.lifetime.start.p0(i64 8, ptr %6) #11
  %19 = load ptr, ptr %4, align 8, !tbaa !31
  %20 = getelementptr inbounds nuw %struct.dt_iop_gui_blend_data_t, ptr %19, i32 0, i32 7
  %21 = load ptr, ptr %20, align 8, !tbaa !134
  %22 = getelementptr inbounds nuw %struct.dt_iop_module_t, ptr %21, i32 0, i32 86
  %23 = load ptr, ptr %22, align 8, !tbaa !77
  store ptr %23, ptr %6, align 8, !tbaa !78
  call void @llvm.lifetime.start.p0(i64 8, ptr %7) #11
  %24 = load ptr, ptr %4, align 8, !tbaa !31
  %25 = getelementptr inbounds nuw %struct.dt_iop_gui_blend_data_t, ptr %24, i32 0, i32 35
  %26 = load ptr, ptr %25, align 8, !tbaa !85
  %27 = load ptr, ptr %4, align 8, !tbaa !31
  %28 = getelementptr inbounds nuw %struct.dt_iop_gui_blend_data_t, ptr %27, i32 0, i32 36
  %29 = load i32, ptr %28, align 8, !tbaa !79
  %30 = sext i32 %29 to i64
  %31 = getelementptr inbounds %struct.dt_iop_gui_blendif_channel_t, ptr %26, i64 %30
  store ptr %31, ptr %7, align 8, !tbaa !86
  call void @llvm.lifetime.start.p0(i64 4, ptr %8) #11
  %32 = load ptr, ptr %3, align 8, !tbaa !187
  %33 = call i64 @gtk_widget_get_type() #12
  %34 = call ptr @g_type_check_instance_cast(ptr noundef %32, i64 noundef %33)
  %35 = load ptr, ptr %4, align 8, !tbaa !31
  %36 = getelementptr inbounds nuw %struct.dt_iop_gui_blend_data_t, ptr %35, i32 0, i32 20
  %37 = getelementptr inbounds [2 x %struct.dt_iop_gui_blendif_filter_t], ptr %36, i64 0, i64 1
  %38 = getelementptr inbounds nuw %struct.dt_iop_gui_blendif_filter_t, ptr %37, i32 0, i32 4
  %39 = load ptr, ptr %38, align 8, !tbaa !144
  %40 = icmp eq ptr %34, %39
  %41 = select i1 %40, i32 1, i32 0
  store i32 %41, ptr %8, align 4, !tbaa !80
  call void @llvm.lifetime.start.p0(i64 4, ptr %9) #11
  %42 = load ptr, ptr %7, align 8, !tbaa !86
  %43 = getelementptr inbounds nuw %struct.dt_iop_gui_blendif_channel_t, ptr %42, i32 0, i32 7
  %44 = load i32, ptr %8, align 4, !tbaa !80
  %45 = sext i32 %44 to i64
  %46 = getelementptr inbounds [2 x i32], ptr %43, i64 0, i64 %45
  %47 = load i32, ptr %46, align 4, !tbaa !80
  store i32 %47, ptr %9, align 4, !tbaa !80
  call void @llvm.lifetime.start.p0(i64 8, ptr %10) #11
  %48 = load ptr, ptr %4, align 8, !tbaa !31
  %49 = getelementptr inbounds nuw %struct.dt_iop_gui_blend_data_t, ptr %48, i32 0, i32 20
  %50 = load i32, ptr %8, align 4, !tbaa !80
  %51 = sext i32 %50 to i64
  %52 = getelementptr inbounds [2 x %struct.dt_iop_gui_blendif_filter_t], ptr %49, i64 0, i64 %51
  %53 = getelementptr inbounds nuw %struct.dt_iop_gui_blendif_filter_t, ptr %52, i32 0, i32 0
  %54 = load ptr, ptr %53, align 8, !tbaa !121
  store ptr %54, ptr %10, align 8, !tbaa !175
  %55 = load i32, ptr %5, align 4, !tbaa !80
  %56 = icmp ne i32 %55, 0
  br i1 %56, label %65, label %57

57:                                               ; preds = %16
  %58 = load i32, ptr %9, align 4, !tbaa !80
  %59 = add i32 %58, 16
  %60 = shl i32 1, %59
  %61 = load ptr, ptr %6, align 8, !tbaa !78
  %62 = getelementptr inbounds nuw %struct.dt_develop_blend_params_t, ptr %61, i32 0, i32 7
  %63 = load i32, ptr %62, align 4, !tbaa !129
  %64 = or i32 %63, %60
  store i32 %64, ptr %62, align 4, !tbaa !129
  br label %74

65:                                               ; preds = %16
  %66 = load i32, ptr %9, align 4, !tbaa !80
  %67 = add i32 %66, 16
  %68 = shl i32 1, %67
  %69 = xor i32 %68, -1
  %70 = load ptr, ptr %6, align 8, !tbaa !78
  %71 = getelementptr inbounds nuw %struct.dt_develop_blend_params_t, ptr %70, i32 0, i32 7
  %72 = load i32, ptr %71, align 4, !tbaa !129
  %73 = and i32 %72, %69
  store i32 %73, ptr %71, align 4, !tbaa !129
  br label %74

74:                                               ; preds = %65, %57
  %75 = load ptr, ptr %10, align 8, !tbaa !175
  %76 = load i32, ptr %5, align 4, !tbaa !80
  %77 = icmp ne i32 %76, 0
  %78 = select i1 %77, i32 10, i32 12
  call void @dtgtk_gradient_slider_multivalue_set_marker(ptr noundef %75, i32 noundef %78, i32 noundef 0)
  %79 = load ptr, ptr %10, align 8, !tbaa !175
  %80 = load i32, ptr %5, align 4, !tbaa !80
  %81 = icmp ne i32 %80, 0
  %82 = select i1 %81, i32 13, i32 11
  call void @dtgtk_gradient_slider_multivalue_set_marker(ptr noundef %79, i32 noundef %82, i32 noundef 1)
  %83 = load ptr, ptr %10, align 8, !tbaa !175
  %84 = load i32, ptr %5, align 4, !tbaa !80
  %85 = icmp ne i32 %84, 0
  %86 = select i1 %85, i32 13, i32 11
  call void @dtgtk_gradient_slider_multivalue_set_marker(ptr noundef %83, i32 noundef %86, i32 noundef 2)
  %87 = load ptr, ptr %10, align 8, !tbaa !175
  %88 = load i32, ptr %5, align 4, !tbaa !80
  %89 = icmp ne i32 %88, 0
  %90 = select i1 %89, i32 10, i32 12
  call void @dtgtk_gradient_slider_multivalue_set_marker(ptr noundef %87, i32 noundef %90, i32 noundef 3)
  %91 = load ptr, ptr getelementptr inbounds nuw (%struct.darktable_t, ptr @darktable, i32 0, i32 9), align 8, !tbaa !132
  %92 = load ptr, ptr %4, align 8, !tbaa !31
  %93 = getelementptr inbounds nuw %struct.dt_iop_gui_blend_data_t, ptr %92, i32 0, i32 7
  %94 = load ptr, ptr %93, align 8, !tbaa !134
  call void @dt_dev_add_history_item(ptr noundef %91, ptr noundef %94, i32 noundef 1)
  %95 = load ptr, ptr %3, align 8, !tbaa !187
  %96 = call i64 @gtk_widget_get_type() #12
  %97 = call ptr @g_type_check_instance_cast(ptr noundef %95, i64 noundef %96)
  call void @dt_control_queue_redraw_widget(ptr noundef %97)
  %98 = load ptr, ptr %4, align 8, !tbaa !31
  %99 = getelementptr inbounds nuw %struct.dt_iop_gui_blend_data_t, ptr %98, i32 0, i32 7
  %100 = load ptr, ptr %99, align 8, !tbaa !134
  call void @_blendop_blendif_highlight_changed_tabs(ptr noundef %100)
  call void @llvm.lifetime.end.p0(i64 8, ptr %10) #11
  call void @llvm.lifetime.end.p0(i64 4, ptr %9) #11
  call void @llvm.lifetime.end.p0(i64 4, ptr %8) #11
  call void @llvm.lifetime.end.p0(i64 8, ptr %7) #11
  call void @llvm.lifetime.end.p0(i64 8, ptr %6) #11
  call void @llvm.lifetime.end.p0(i64 4, ptr %5) #11
  br label %101

101:                                              ; preds = %74, %15
  ret void
}