; Function Attrs: nounwind uwtable
define internal void @_blendop_blendif_polarity_callback(ptr noundef %0, ptr noundef readonly captures(none) %1) #0 {
  %3 = load ptr, ptr getelementptr inbounds nuw (i8, ptr @darktable, i64 104), align 8, !tbaa !33
  %4 = getelementptr inbounds nuw i8, ptr %3, i64 96
  %5 = load i32, ptr %4, align 8, !tbaa !66
  %.not = icmp eq i32 %5, 0
  br i1 %.not, label %6, label %46

6:                                                ; preds = %2
  %7 = tail call i32 @gtk_toggle_button_get_active(ptr noundef %0) #18
  %8 = getelementptr inbounds nuw i8, ptr %1, i64 32
  %9 = load ptr, ptr %8, align 8, !tbaa !79
  %10 = getelementptr inbounds nuw i8, ptr %9, i64 760
  %11 = load ptr, ptr %10, align 8, !tbaa !71
  %12 = getelementptr inbounds nuw i8, ptr %1, i64 384
  %13 = load ptr, ptr %12, align 8, !tbaa !76
  %14 = getelementptr inbounds nuw i8, ptr %1, i64 392
  %15 = load i32, ptr %14, align 8, !tbaa !72
  %16 = sext i32 %15 to i64
  %17 = tail call i64 @gtk_widget_get_type() #19
  %18 = tail call ptr @g_type_check_instance_cast(ptr noundef %0, i64 noundef %17) #18
  %19 = getelementptr inbounds nuw i8, ptr %1, i64 136
  %20 = getelementptr inbounds nuw i8, ptr %1, i64 264
  %21 = load ptr, ptr %20, align 8, !tbaa !130
  %22 = icmp eq ptr %18, %21
  %23 = zext i1 %22 to i64
  %24 = getelementptr inbounds %struct.dt_iop_gui_blendif_channel_t, ptr %13, i64 %16, i32 7, i64 %23
  %25 = load i32, ptr %24, align 4, !tbaa !77
  %26 = getelementptr inbounds nuw [2 x %struct.dt_iop_gui_blendif_filter_t], ptr %19, i64 0, i64 %23
  %27 = load ptr, ptr %26, align 8, !tbaa !108
  %.not25 = icmp eq i32 %7, 0
  %28 = add i32 %25, 16
  %29 = shl nuw i32 1, %28
  br i1 %.not25, label %30, label %34

30:                                               ; preds = %6
  %31 = getelementptr inbounds nuw i8, ptr %11, i64 28
  %32 = load i32, ptr %31, align 4, !tbaa !116
  %33 = or i32 %32, %29
  store i32 %33, ptr %31, align 4, !tbaa !116
  br label %39

34:                                               ; preds = %6
  %35 = xor i32 %29, -1
  %36 = getelementptr inbounds nuw i8, ptr %11, i64 28
  %37 = load i32, ptr %36, align 4, !tbaa !116
  %38 = and i32 %37, %35
  store i32 %38, ptr %36, align 4, !tbaa !116
  br label %39

39:                                               ; preds = %34, %30
  %40 = phi i32 [ 13, %34 ], [ 11, %30 ]
  %41 = phi i32 [ 10, %34 ], [ 12, %30 ]
  tail call void @dtgtk_gradient_slider_multivalue_set_marker(ptr noundef %27, i32 noundef %41, i32 noundef 0) #18
  tail call void @dtgtk_gradient_slider_multivalue_set_marker(ptr noundef %27, i32 noundef %40, i32 noundef 1) #18
  tail call void @dtgtk_gradient_slider_multivalue_set_marker(ptr noundef %27, i32 noundef %40, i32 noundef 2) #18
  tail call void @dtgtk_gradient_slider_multivalue_set_marker(ptr noundef %27, i32 noundef %41, i32 noundef 3) #18
  %42 = load ptr, ptr getelementptr inbounds nuw (i8, ptr @darktable, i64 64), align 8, !tbaa !119
  %43 = load ptr, ptr %8, align 8, !tbaa !79
  tail call void @dt_dev_add_history_item(ptr noundef %42, ptr noundef %43, i32 noundef 1) #18
  %44 = tail call ptr @g_type_check_instance_cast(ptr noundef %0, i64 noundef %17) #18
  tail call void @dt_control_queue_redraw_widget(ptr noundef %44) #18
  %45 = load ptr, ptr %8, align 8, !tbaa !79
  tail call fastcc void @_blendop_blendif_highlight_changed_tabs(ptr noundef %45)
  br label %46

46:                                               ; preds = %2, %39
  ret void
}